; Function Attrs: mustprogress uwtable
define void @_ZN9grpc_core23GrpcXdsTransportFactory16GrpcXdsTransport17GrpcStreamingCall21OnRecvInitialMetadataEPvN4absl12lts_202407226StatusE(ptr noundef %0, ptr readnone captures(none) %1) #3 align 2 personality ptr @__gxx_personality_v0 {
  %3 = getelementptr inbounds nuw i8, ptr %0, i64 40
  invoke void @grpc_metadata_array_destroy(ptr noundef nonnull %3)
          to label %4 unwind label %12

4:                                                ; preds = %2
  %5 = getelementptr inbounds nuw i8, ptr %0, i64 8
  %6 = atomicrmw sub ptr %5, i64 1 acq_rel, align 8
  %7 = icmp eq i64 %6, 1
  br i1 %7, label %8, label %_ZN9grpc_core13RefCountedPtrINS_23GrpcXdsTransportFactory16GrpcXdsTransport17GrpcStreamingCallEED2Ev.exit, !prof !75

8:                                                ; preds = %4
  %9 = load ptr, ptr %0, align 8, !tbaa !8
  %10 = getelementptr inbounds nuw i8, ptr %9, i64 16
  %11 = load ptr, ptr %10, align 8
  tail call void %11(ptr noundef nonnull align 8 dereferenceable(16) %0) #37
  br label %_ZN9grpc_core13RefCountedPtrINS_23GrpcXdsTransportFactory16GrpcXdsTransport17GrpcStreamingCallEED2Ev.exit

_ZN9grpc_core13RefCountedPtrINS_23GrpcXdsTransportFactory16GrpcXdsTransport17GrpcStreamingCallEED2Ev.exit: ; preds = %4, %8
  ret void

12:                                               ; preds = %2
  %13 = landingpad { ptr, i32 }
          cleanup
  %14 = getelementptr inbounds nuw i8, ptr %0, i64 8
  %15 = atomicrmw sub ptr %14, i64 1 acq_rel, align 8
  %16 = icmp eq i64 %15, 1
  br i1 %16, label %17, label %_ZN9grpc_core13RefCountedPtrINS_23GrpcXdsTransportFactory16GrpcXdsTransport17GrpcStreamingCallEED2Ev.exit3, !prof !75

17:                                               ; preds = %12
  %18 = load ptr, ptr %0, align 8, !tbaa !8
  %19 = getelementptr inbounds nuw i8, ptr %18, i64 16
  %20 = load ptr, ptr %19, align 8
  tail call void %20(ptr noundef nonnull align 8 dereferenceable(16) %0) #37
  br label %_ZN9grpc_core13RefCountedPtrINS_23GrpcXdsTransportFactory16GrpcXdsTransport17GrpcStreamingCallEED2Ev.exit3

_ZN9grpc_core13RefCountedPtrINS_23GrpcXdsTransportFactory16GrpcXdsTransport17GrpcStreamingCallEED2Ev.exit3: ; preds = %12, %17
  resume { ptr, i32 } %13
}